target datalayout = "e-m:e-p270:32:32-p271:32:32-p272:64:64-i64:64-i128:128-f80:128-n8:16:32:64-S128"
target triple = "x86_64-pc-linux-gnu"

%"struct.vcpkg::Optional" = type { %"struct.vcpkg::details::OptionalStorage" }
%"struct.vcpkg::details::OptionalStorage" = type { %"struct.vcpkg::details::OptionalStorageDtor" }
%"struct.vcpkg::details::OptionalStorageDtor" = type { i8, %union.anon }
%union.anon = type { %"struct.vcpkg::IEProxySetting" }
%"struct.vcpkg::IEProxySetting" = type { %"class.std::__cxx11::basic_string", %"class.std::__cxx11::basic_string" }
%"class.std::__cxx11::basic_string" = type { %"struct.std::__cxx11::basic_string<wchar_t>::_Alloc_hider", i64, %union.anon.0 }
%"struct.std::__cxx11::basic_string<wchar_t>::_Alloc_hider" = type { ptr }
%union.anon.0 = type { i64, [8 x i8] }

$_ZN5vcpkg8OptionalINS_14IEProxySettingEEC2Ev = comdat any

$_ZN5vcpkg7details15OptionalStorageINS_14IEProxySettingELb1EEC2Ev = comdat any

$__clang_call_terminate = comdat any

$_ZN5vcpkg7details19OptionalStorageDtorINS_14IEProxySettingELb0EEC2Ev = comdat any

; Function Attrs: mustprogress nounwind uwtable
define dso_local void @_ZN5vcpkg27get_windows_ie_proxy_serverEv(ptr dead_on_unwind noalias writable sret(%"struct.vcpkg::Optional") align 8 %0) #0 {
  %2 = alloca ptr, align 8
  store ptr %0, ptr %2, align 8
  call void @_ZN5vcpkg8OptionalINS_14IEProxySettingEEC2Ev(ptr noundef nonnull align 8 dereferenceable(72) %0) #3
  ret void
}

; Function Attrs: mustprogress nounwind uwtable
define linkonce_odr dso_local void @_ZN5vcpkg8OptionalINS_14IEProxySettingEEC2Ev(ptr noundef nonnull align 8 dereferenceable(72) %0) unnamed_addr #0 comdat align 2 personality ptr @__gxx_personality_v0 {
  %2 = alloca ptr, align 8
  store ptr %0, ptr %2, align 8, !tbaa !4
  %3 = load ptr, ptr %2, align 8
  invoke void @_ZN5vcpkg7details15OptionalStorageINS_14IEProxySettingELb1EEC2Ev(ptr noundef nonnull align 8 dereferenceable(72) %3)
          to label %4 unwind label %5

4:                                                ; preds = %1
  ret void

5:                                                ; preds = %1
  %6 = landingpad { ptr, i32 }
          catch ptr null
  %7 = extractvalue { ptr, i32 } %6, 0
  call void @__clang_call_terminate(ptr %7) #4
  unreachable
}

; Function Attrs: mustprogress uwtable
define linkonce_odr dso_local void @_ZN5vcpkg7details15OptionalStorageINS_14IEProxySettingELb1EEC2Ev(ptr noundef nonnull align 8 dereferenceable(72) %0) unnamed_addr #1 comdat align 2 {
  %2 = alloca ptr, align 8
  store ptr %0, ptr %2, align 8, !tbaa !9
  %3 = load ptr, ptr %2, align 8
  call void @_ZN5vcpkg7details19OptionalStorageDtorINS_14IEProxySettingELb0EEC2Ev(ptr noundef nonnull align 8 dereferenceable(72) %3)
  ret void
}

declare i32 @__gxx_personality_v0(...)

; Function Attrs: noinline noreturn nounwind uwtable
define linkonce_odr hidden void @__clang_call_terminate(ptr noundef %0) #2 comdat {
  %2 = call ptr @__cxa_begin_catch(ptr %0) #3
  call void @_ZSt9terminatev() #4
  unreachable
}

declare ptr @__cxa_begin_catch(ptr)

declare void @_ZSt9terminatev()

; Function Attrs: mustprogress nounwind uwtable
define linkonce_odr dso_local void @_ZN5vcpkg7details19OptionalStorageDtorINS_14IEProxySettingELb0EEC2Ev(ptr noundef nonnull align 8 dereferenceable(72) %0) unnamed_addr #0 comdat align 2 {
  %2 = alloca ptr, align 8
  store ptr %0, ptr %2, align 8, !tbaa !11
  %3 = load ptr, ptr %2, align 8
  %4 = getelementptr inbounds nuw %"struct.vcpkg::details::OptionalStorageDtor", ptr %3, i32 0, i32 0
  store i8 0, ptr %4, align 8, !tbaa !13
  %5 = getelementptr inbounds nuw %"struct.vcpkg::details::OptionalStorageDtor", ptr %3, i32 0, i32 1
  store i8 0, ptr %5, align 8, !tbaa !16
  ret void
}


!llvm.module.flags = !{!0, !1, !2, !3}

!0 = !{i32 1, !"wchar_size", i32 4}
!1 = !{i32 8, !"PIC Level", i32 2}
!2 = !{i32 7, !"PIE Level", i32 2}
!3 = !{i32 7, !"uwtable", i32 2}
!4 = !{!5, !5, i64 0}
!5 = !{!"p1 _ZTSN5vcpkg8OptionalINS_14IEProxySettingEEE", !6, i64 0}
!6 = !{!"any pointer", !7, i64 0}
!7 = !{!"omnipotent char", !8, i64 0}
!8 = !{!"Simple C++ TBAA"}
!9 = !{!10, !10, i64 0}
!10 = !{!"p1 _ZTSN5vcpkg7details15OptionalStorageINS_14IEProxySettingELb1EEE", !6, i64 0}
!11 = !{!12, !12, i64 0}
!12 = !{!"p1 _ZTSN5vcpkg7details19OptionalStorageDtorINS_14IEProxySettingELb0EEE", !6, i64 0}
!13 = !{!14, !15, i64 0}
!14 = !{!"_ZTSN5vcpkg7details19OptionalStorageDtorINS_14IEProxySettingELb0EEE", !15, i64 0, !7, i64 8}
!15 = !{!"bool", !7, i64 0}
!16 = !{!7, !7, i64 0}
