; ModuleID = 'bench/vcpkg/original/system.proxy.ll'
source_filename = "bench/vcpkg/original/system.proxy.ll"
target datalayout = "e-m:e-p270:32:32-p271:32:32-p272:64:64-i64:64-i128:128-f80:128-n8:16:32:64-S128"
target triple = "x86_64-pc-linux-gnu"

%"struct.vcpkg::Optional" = type { %"struct.vcpkg::details::OptionalStorage" }
%"struct.vcpkg::details::OptionalStorage" = type { %"struct.vcpkg::details::OptionalStorageDtor" }
%"struct.vcpkg::details::OptionalStorageDtor" = type { i8, %union.anon }
%union.anon = type { %"struct.vcpkg::IEProxySetting" }
%"struct.vcpkg::IEProxySetting" = type { %"class.std::__cxx11::basic_string", %"class.std::__cxx11::basic_string" }
%"class.std::__cxx11::basic_string" = type { %"struct.std::__cxx11::basic_string<wchar_t>::_Alloc_hider", i64, %union.anon.0 }
%"struct.std::__cxx11::basic_string<wchar_t>::_Alloc_hider" = type { ptr }
%union.anon.0 = type { i64, [8 x i8] }

; Function Attrs: mustprogress nofree norecurse nosync nounwind willreturn memory(argmem: write) uwtable
define dso_local void @_ZN5vcpkg27get_windows_ie_proxy_serverEv(ptr dead_on_unwind noalias writable writeonly sret(%"struct.vcpkg::Optional") align 8 captures(none) initializes((0, 1), (8, 9)) %0) local_unnamed_addr #0 personality ptr @__gxx_personality_v0 {
  store i8 0, ptr %0, align 8, !tbaa !4
  %2 = getelementptr inbounds nuw i8, ptr %0, i64 8
  store i8 0, ptr %2, align 8, !tbaa !9
  ret void
}

declare i32 @__gxx_personality_v0(...)


!llvm.module.flags = !{!0, !1, !2, !3}

!0 = !{i32 1, !"wchar_size", i32 4}
!1 = !{i32 8, !"PIC Level", i32 2}
!2 = !{i32 7, !"PIE Level", i32 2}
!3 = !{i32 7, !"uwtable", i32 2}
!4 = !{!5, !6, i64 0}
!5 = !{!"_ZTSN5vcpkg7details19OptionalStorageDtorINS_14IEProxySettingELb0EEE", !6, i64 0, !7, i64 8}
!6 = !{!"bool", !7, i64 0}
!7 = !{!"omnipotent char", !8, i64 0}
!8 = !{!"Simple C++ TBAA"}
!9 = !{!7, !7, i64 0}
